target datalayout = "e-m:e-p270:32:32-p271:32:32-p272:64:64-i64:64-i128:128-f80:128-n8:16:32:64-S128"
target triple = "x86_64-pc-linux-gnu"

@_ZN5IpoptL25user_ma86_default_controlE = internal global ptr null, align 8
@_ZN5IpoptL17user_ma86_analyseE = internal global ptr null, align 8
@_ZN5IpoptL16user_ma86_factorE = internal global ptr null, align 8
@_ZN5IpoptL22user_ma86_factor_solveE = internal global ptr null, align 8
@_ZN5IpoptL15user_ma86_solveE = internal global ptr null, align 8
@_ZN5IpoptL18user_ma86_finaliseE = internal global ptr null, align 8
@_ZN5IpoptL25user_mc68_default_controlE = internal global ptr null, align 8
@_ZN5IpoptL15user_mc68_orderE = internal global ptr null, align 8

; Function Attrs: mustprogress nounwind uwtable
define void @_ZN5Ipopt19Ma86SolverInterface12SetFunctionsEPFvP14ma86_control_dEPFviPKiS6_PiPPvPKS1_P11ma86_info_dEPFviS6_S6_PKdS6_S9_SB_SD_SH_EPFviS6_S6_SH_S6_S9_SB_SD_iiPdSH_EPFviiiSK_S6_S9_SB_SD_SH_EPFvS9_SB_EPFvP14mc68_control_iEPFviiS6_S6_S7_PKSR_P11mc68_info_iE(ptr noundef %0, ptr noundef %1, ptr noundef %2, ptr noundef %3, ptr noundef %4, ptr noundef %5, ptr noundef %6, ptr noundef %7) #4 align 2 {
  %9 = alloca ptr, align 8
  %10 = alloca ptr, align 8
  %11 = alloca ptr, align 8
  %12 = alloca ptr, align 8
  %13 = alloca ptr, align 8
  %14 = alloca ptr, align 8
  %15 = alloca ptr, align 8
  %16 = alloca ptr, align 8
  store ptr %0, ptr %9, align 8, !tbaa !47
  store ptr %1, ptr %10, align 8, !tbaa !47
  store ptr %2, ptr %11, align 8, !tbaa !47
  store ptr %3, ptr %12, align 8, !tbaa !47
  store ptr %4, ptr %13, align 8, !tbaa !47
  store ptr %5, ptr %14, align 8, !tbaa !47
  store ptr %6, ptr %15, align 8, !tbaa !47
  store ptr %7, ptr %16, align 8, !tbaa !47
  %17 = load ptr, ptr %9, align 8, !tbaa !47
  store ptr %17, ptr @_ZN5IpoptL25user_ma86_default_controlE, align 8, !tbaa !47
  %18 = load ptr, ptr %10, align 8, !tbaa !47
  store ptr %18, ptr @_ZN5IpoptL17user_ma86_analyseE, align 8, !tbaa !47
  %19 = load ptr, ptr %11, align 8, !tbaa !47
  store ptr %19, ptr @_ZN5IpoptL16user_ma86_factorE, align 8, !tbaa !47
  %20 = load ptr, ptr %12, align 8, !tbaa !47
  store ptr %20, ptr @_ZN5IpoptL22user_ma86_factor_solveE, align 8, !tbaa !47
  %21 = load ptr, ptr %13, align 8, !tbaa !47
  store ptr %21, ptr @_ZN5IpoptL15user_ma86_solveE, align 8, !tbaa !47
  %22 = load ptr, ptr %14, align 8, !tbaa !47
  store ptr %22, ptr @_ZN5IpoptL18user_ma86_finaliseE, align 8, !tbaa !47
  %23 = load ptr, ptr %15, align 8, !tbaa !47
  store ptr %23, ptr @_ZN5IpoptL25user_mc68_default_controlE, align 8, !tbaa !47
  %24 = load ptr, ptr %16, align 8, !tbaa !47
  store ptr %24, ptr @_ZN5IpoptL15user_mc68_orderE, align 8, !tbaa !47
  ret void
}