; Function Attrs: mustprogress nofree norecurse nosync nounwind willreturn memory(write, argmem: none, inaccessiblemem: none) uwtable
define void @_ZN5Ipopt19Ma86SolverInterface12SetFunctionsEPFvP14ma86_control_dEPFviPKiS6_PiPPvPKS1_P11ma86_info_dEPFviS6_S6_PKdS6_S9_SB_SD_SH_EPFviS6_S6_SH_S6_S9_SB_SD_iiPdSH_EPFviiiSK_S6_S9_SB_SD_SH_EPFvS9_SB_EPFvP14mc68_control_iEPFviiS6_S6_S7_PKSR_P11mc68_info_iE(ptr noundef %0, ptr noundef %1, ptr noundef %2, ptr noundef %3, ptr noundef %4, ptr noundef %5, ptr noundef %6, ptr noundef %7) local_unnamed_addr #9 align 2 {
  store ptr %0, ptr @_ZN5IpoptL25user_ma86_default_controlE, align 8, !tbaa !50
  store ptr %1, ptr @_ZN5IpoptL17user_ma86_analyseE, align 8, !tbaa !50
  store ptr %2, ptr @_ZN5IpoptL16user_ma86_factorE, align 8, !tbaa !50
  store ptr %3, ptr @_ZN5IpoptL22user_ma86_factor_solveE, align 8, !tbaa !50
  store ptr %4, ptr @_ZN5IpoptL15user_ma86_solveE, align 8, !tbaa !50
  store ptr %5, ptr @_ZN5IpoptL18user_ma86_finaliseE, align 8, !tbaa !50
  store ptr %6, ptr @_ZN5IpoptL25user_mc68_default_controlE, align 8, !tbaa !50
  store ptr %7, ptr @_ZN5IpoptL15user_mc68_orderE, align 8, !tbaa !50
  ret void
}